target datalayout = "e-m:e-p270:32:32-p271:32:32-p272:64:64-i64:64-i128:128-f80:128-n8:16:32:64-S128"
target triple = "x86_64-unknown-linux-gnu"

%"class.facebook::velox::expression::calculate::Parser" = type { ptr, %"class.facebook::velox::expression::calculate::Parser::stack", ptr }
%"class.facebook::velox::expression::calculate::Parser::stack" = type { %"class.std::vector" }
%"class.std::vector" = type { %"struct.std::_Vector_base" }
%"struct.std::_Vector_base" = type { %"struct.std::_Vector_base<facebook::velox::expression::calculate::Parser::stack_symbol_type, std::allocator<facebook::velox::expression::calculate::Parser::stack_symbol_type>>::_Vector_impl" }
%"struct.std::_Vector_base<facebook::velox::expression::calculate::Parser::stack_symbol_type, std::allocator<facebook::velox::expression::calculate::Parser::stack_symbol_type>>::_Vector_impl" = type { %"struct.std::_Vector_base<facebook::velox::expression::calculate::Parser::stack_symbol_type, std::allocator<facebook::velox::expression::calculate::Parser::stack_symbol_type>>::_Vector_impl_data" }
%"struct.std::_Vector_base<facebook::velox::expression::calculate::Parser::stack_symbol_type, std::allocator<facebook::velox::expression::calculate::Parser::stack_symbol_type>>::_Vector_impl_data" = type { ptr, ptr, ptr }
%"class.std::allocator" = type { i8 }

; Function Attrs: mustprogress nounwind uwtable
define linkonce_odr void @_ZNSt15__new_allocatorIN8facebook5velox10expression9calculate6Parser17stack_symbol_typeEED2Ev(ptr noundef nonnull align 1 dereferenceable(1) %this) unnamed_addr #4 comdat align 2 {
entry:
  %this.addr = alloca ptr, align 8
  store ptr %this, ptr %this.addr, align 8
  ret void
}

; Function Attrs: mustprogress nounwind uwtable
define linkonce_odr void @_ZNSt15__new_allocatorIN8facebook5velox10expression9calculate6Parser17stack_symbol_typeEEC2Ev(ptr noundef nonnull align 1 dereferenceable(1) %this) unnamed_addr #4 comdat align 2 {
entry:
  %this.addr = alloca ptr, align 8
  store ptr %this, ptr %this.addr, align 8
  ret void
}

; Function Attrs: mustprogress nounwind uwtable
define linkonce_odr void @_ZNSaIN8facebook5velox10expression9calculate6Parser17stack_symbol_typeEED2Ev(ptr noundef nonnull align 1 dereferenceable(1) %this) unnamed_addr #4 comdat align 2 {
entry:
  %this.addr = alloca ptr, align 8
  store ptr %this, ptr %this.addr, align 8
  %this1 = load ptr, ptr %this.addr, align 8
  call void @_ZNSt15__new_allocatorIN8facebook5velox10expression9calculate6Parser17stack_symbol_typeEED2Ev(ptr noundef nonnull align 1 dereferenceable(1) %this1) #3
  ret void
}

; Function Attrs: mustprogress nounwind uwtable
define linkonce_odr void @_ZNSaIN8facebook5velox10expression9calculate6Parser17stack_symbol_typeEEC2Ev(ptr noundef nonnull align 1 dereferenceable(1) %this) unnamed_addr #4 comdat align 2 {
entry:
  %this.addr = alloca ptr, align 8
  store ptr %this, ptr %this.addr, align 8
  %this1 = load ptr, ptr %this.addr, align 8
  call void @_ZNSt15__new_allocatorIN8facebook5velox10expression9calculate6Parser17stack_symbol_typeEEC2Ev(ptr noundef nonnull align 1 dereferenceable(1) %this1) #3
  ret void
}

; Function Attrs: mustprogress nounwind uwtable
define linkonce_odr void @_ZN8facebook5velox10expression9calculate6Parser5stackINS3_17stack_symbol_typeESt6vectorIS5_SaIS5_EEEC2Em(ptr noundef nonnull align 8 dereferenceable(24) %this, i64 noundef %n) unnamed_addr #4 comdat align 2 personality ptr @__gxx_personality_v0 {
entry:
  %this.addr = alloca ptr, align 8
  %n.addr = alloca i64, align 8
  %ref.tmp = alloca %"class.std::allocator", align 1
  store ptr %this, ptr %this.addr, align 8
  store i64 %n, ptr %n.addr, align 8
  %this1 = load ptr, ptr %this.addr, align 8
  %seq_ = getelementptr inbounds %"class.facebook::velox::expression::calculate::Parser::stack", ptr %this1, i32 0, i32 0
  %0 = load i64, ptr %n.addr, align 8
  call void @_ZNSaIN8facebook5velox10expression9calculate6Parser17stack_symbol_typeEEC2Ev(ptr noundef nonnull align 1 dereferenceable(1) %ref.tmp) #3
  invoke void @_ZNSt6vectorIN8facebook5velox10expression9calculate6Parser17stack_symbol_typeESaIS5_EEC2EmRKS6_(ptr noundef nonnull align 8 dereferenceable(24) %seq_, i64 noundef %0, ptr noundef nonnull align 1 dereferenceable(1) %ref.tmp)
          to label %invoke.cont unwind label %terminate.lpad

invoke.cont:                                      ; preds = %entry
  call void @_ZNSaIN8facebook5velox10expression9calculate6Parser17stack_symbol_typeEED2Ev(ptr noundef nonnull align 1 dereferenceable(1) %ref.tmp) #3
  ret void

terminate.lpad:                                   ; preds = %entry
  %1 = landingpad { ptr, i32 }
          catch ptr null
  %2 = extractvalue { ptr, i32 } %1, 0
  call void @__clang_call_terminate(ptr %2) #14
  unreachable
}

; Function Attrs: mustprogress nounwind uwtable
define void @_ZN8facebook5velox10expression9calculate6ParserC2EPNS2_7ScannerE(ptr noundef nonnull align 8 dereferenceable(40) %this, ptr noundef %scanner_yyarg) unnamed_addr #4 align 2 {
entry:
  %this.addr = alloca ptr, align 8
  %scanner_yyarg.addr = alloca ptr, align 8
  store ptr %this, ptr %this.addr, align 8
  store ptr %scanner_yyarg, ptr %scanner_yyarg.addr, align 8
  %this1 = load ptr, ptr %this.addr, align 8
  store ptr getelementptr inbounds ({ [7 x ptr] }, ptr @_ZTVN8facebook5velox10expression9calculate6ParserE, i32 0, i32 0, i32 2), ptr %this1, align 8
  %yystack_ = getelementptr inbounds %"class.facebook::velox::expression::calculate::Parser", ptr %this1, i32 0, i32 1
  call void @_ZN8facebook5velox10expression9calculate6Parser5stackINS3_17stack_symbol_typeESt6vectorIS5_SaIS5_EEEC2Em(ptr noundef nonnull align 8 dereferenceable(24) %yystack_, i64 noundef 200) #3
  %scanner = getelementptr inbounds %"class.facebook::velox::expression::calculate::Parser", ptr %this1, i32 0, i32 2
  %0 = load ptr, ptr %scanner_yyarg.addr, align 8
  store ptr %0, ptr %scanner, align 8
  ret void
}